target datalayout = "e-m:e-p270:32:32-p271:32:32-p272:64:64-i64:64-i128:128-f80:128-n8:16:32:64-S128"
target triple = "x86_64-pc-linux-gnu"

%struct.spring_electrical_control_struct = type { double, double, i32, i32, i32, double, i32, i8, i32, i32, i8, i32, double, double, i32 }

@stderr = external global ptr, align 8
@.str = private unnamed_addr constant [28 x i8] c"spring_electrical_control:\0A\00", align 1
@.str.1 = private unnamed_addr constant [29 x i8] c"  repulsive exponent: %.03f\0A\00", align 1
@.str.2 = private unnamed_addr constant [27 x i8] c"  random start %d seed %d\0A\00", align 1
@.str.3 = private unnamed_addr constant [23 x i8] c"  K : %.03f C : %.03f\0A\00", align 1
@.str.4 = private unnamed_addr constant [17 x i8] c"  max levels %d\0A\00", align 1
@.str.5 = private unnamed_addr constant [33 x i8] c"  quadtree size %d max_level %d\0A\00", align 1
@.str.6 = private unnamed_addr constant [58 x i8] c"  Barnes-Hutt constant %.03f tolerance  %.03f maxiter %d\0A\00", align 1
@.str.7 = private unnamed_addr constant [46 x i8] c"  cooling %.03f step size  %.03f adaptive %d\0A\00", align 1
@.str.8 = private unnamed_addr constant [53 x i8] c"  beautify_leaves %d node weights %d rotation %.03f\0A\00", align 1
@.str.9 = private unnamed_addr constant [65 x i8] c"  smoothing %s overlap %d initial_scaling %.03f do_shrinking %d\0A\00", align 1
@smoothings = internal global [7 x ptr] [ptr @.str.15, ptr @.str.16, ptr @.str.17, ptr @.str.18, ptr @.str.19, ptr @.str.20, ptr @.str.21], align 16
@.str.10 = private unnamed_addr constant [20 x i8] c"  octree scheme %s\0A\00", align 1
@tschemes = internal global [4 x ptr] [ptr @.str.15, ptr @.str.22, ptr @.str.23, ptr @.str.24], align 16
@.str.11 = private unnamed_addr constant [27 x i8] c"  edge_labeling_scheme %d\0A\00", align 1

; Function Attrs: nounwind uwtable
define void @spring_electrical_control_print(ptr noundef %0) #0 {
  %2 = alloca ptr, align 8
  store ptr %0, ptr %2, align 8, !tbaa !3
  %3 = load ptr, ptr @stderr, align 8, !tbaa !28
  %4 = call i32 (ptr, ptr, ...) @fprintf(ptr noundef %3, ptr noundef @.str) #12
  %5 = load ptr, ptr @stderr, align 8, !tbaa !28
  %6 = load ptr, ptr %2, align 8, !tbaa !3
  %7 = getelementptr inbounds nuw %struct.spring_electrical_control_struct, ptr %6, i32 0, i32 0
  %8 = load double, ptr %7, align 8, !tbaa !8
  %9 = call i32 (ptr, ptr, ...) @fprintf(ptr noundef %5, ptr noundef @.str.1, double noundef %8) #12
  %10 = load ptr, ptr @stderr, align 8, !tbaa !28
  %11 = load ptr, ptr %2, align 8, !tbaa !3
  %12 = getelementptr inbounds nuw %struct.spring_electrical_control_struct, ptr %11, i32 0, i32 7
  %13 = load i8, ptr %12, align 4
  %14 = and i8 %13, 1
  %15 = trunc i8 %14 to i1
  %16 = zext i1 %15 to i32
  %17 = load ptr, ptr %2, align 8, !tbaa !3
  %18 = getelementptr inbounds nuw %struct.spring_electrical_control_struct, ptr %17, i32 0, i32 6
  %19 = load i32, ptr %18, align 8, !tbaa !18
  %20 = call i32 (ptr, ptr, ...) @fprintf(ptr noundef %10, ptr noundef @.str.2, i32 noundef %16, i32 noundef %19) #12
  %21 = load ptr, ptr @stderr, align 8, !tbaa !28
  %22 = load ptr, ptr %2, align 8, !tbaa !3
  %23 = getelementptr inbounds nuw %struct.spring_electrical_control_struct, ptr %22, i32 0, i32 1
  %24 = load double, ptr %23, align 8, !tbaa !13
  %25 = call i32 (ptr, ptr, ...) @fprintf(ptr noundef %21, ptr noundef @.str.3, double noundef %24, double noundef 2.000000e-01) #12
  %26 = load ptr, ptr @stderr, align 8, !tbaa !28
  %27 = load ptr, ptr %2, align 8, !tbaa !3
  %28 = getelementptr inbounds nuw %struct.spring_electrical_control_struct, ptr %27, i32 0, i32 2
  %29 = load i32, ptr %28, align 8, !tbaa !14
  %30 = call i32 (ptr, ptr, ...) @fprintf(ptr noundef %26, ptr noundef @.str.4, i32 noundef %29) #12
  %31 = load ptr, ptr @stderr, align 8, !tbaa !28
  %32 = load ptr, ptr %2, align 8, !tbaa !3
  %33 = getelementptr inbounds nuw %struct.spring_electrical_control_struct, ptr %32, i32 0, i32 3
  %34 = load i32, ptr %33, align 4, !tbaa !15
  %35 = call i32 (ptr, ptr, ...) @fprintf(ptr noundef %31, ptr noundef @.str.5, i32 noundef 45, i32 noundef %34) #12
  %36 = load ptr, ptr @stderr, align 8, !tbaa !28
  %37 = load ptr, ptr %2, align 8, !tbaa !3
  %38 = getelementptr inbounds nuw %struct.spring_electrical_control_struct, ptr %37, i32 0, i32 4
  %39 = load i32, ptr %38, align 8, !tbaa !16
  %40 = call i32 (ptr, ptr, ...) @fprintf(ptr noundef %36, ptr noundef @.str.6, double noundef 6.000000e-01, double noundef 1.000000e-03, i32 noundef %39) #12
  %41 = load ptr, ptr @stderr, align 8, !tbaa !28
  %42 = load ptr, ptr %2, align 8, !tbaa !3
  %43 = getelementptr inbounds nuw %struct.spring_electrical_control_struct, ptr %42, i32 0, i32 5
  %44 = load double, ptr %43, align 8, !tbaa !17
  %45 = load ptr, ptr %2, align 8, !tbaa !3
  %46 = getelementptr inbounds nuw %struct.spring_electrical_control_struct, ptr %45, i32 0, i32 7
  %47 = load i8, ptr %46, align 4
  %48 = lshr i8 %47, 1
  %49 = and i8 %48, 1
  %50 = trunc i8 %49 to i1
  %51 = zext i1 %50 to i32
  %52 = call i32 (ptr, ptr, ...) @fprintf(ptr noundef %41, ptr noundef @.str.7, double noundef 9.000000e-01, double noundef %44, i32 noundef %51) #12
  %53 = load ptr, ptr @stderr, align 8, !tbaa !28
  %54 = load ptr, ptr %2, align 8, !tbaa !3
  %55 = getelementptr inbounds nuw %struct.spring_electrical_control_struct, ptr %54, i32 0, i32 7
  %56 = load i8, ptr %55, align 4
  %57 = lshr i8 %56, 2
  %58 = and i8 %57, 1
  %59 = trunc i8 %58 to i1
  %60 = zext i1 %59 to i32
  %61 = load ptr, ptr %2, align 8, !tbaa !3
  %62 = getelementptr inbounds nuw %struct.spring_electrical_control_struct, ptr %61, i32 0, i32 13
  %63 = load double, ptr %62, align 8, !tbaa !24
  %64 = call i32 (ptr, ptr, ...) @fprintf(ptr noundef %53, ptr noundef @.str.8, i32 noundef %60, i32 noundef 0, double noundef %63) #12
  %65 = load ptr, ptr @stderr, align 8, !tbaa !28
  %66 = load ptr, ptr %2, align 8, !tbaa !3
  %67 = getelementptr inbounds nuw %struct.spring_electrical_control_struct, ptr %66, i32 0, i32 8
  %68 = load i32, ptr %67, align 8, !tbaa !19
  %69 = sext i32 %68 to i64
  %70 = getelementptr inbounds [7 x ptr], ptr @smoothings, i64 0, i64 %69
  %71 = load ptr, ptr %70, align 8, !tbaa !30
  %72 = load ptr, ptr %2, align 8, !tbaa !3
  %73 = getelementptr inbounds nuw %struct.spring_electrical_control_struct, ptr %72, i32 0, i32 9
  %74 = load i32, ptr %73, align 4, !tbaa !20
  %75 = load ptr, ptr %2, align 8, !tbaa !3
  %76 = getelementptr inbounds nuw %struct.spring_electrical_control_struct, ptr %75, i32 0, i32 12
  %77 = load double, ptr %76, align 8, !tbaa !23
  %78 = load ptr, ptr %2, align 8, !tbaa !3
  %79 = getelementptr inbounds nuw %struct.spring_electrical_control_struct, ptr %78, i32 0, i32 10
  %80 = load i8, ptr %79, align 8, !tbaa !21, !range !32, !noundef !33
  %81 = trunc i8 %80 to i1
  %82 = zext i1 %81 to i32
  %83 = call i32 (ptr, ptr, ...) @fprintf(ptr noundef %65, ptr noundef @.str.9, ptr noundef %71, i32 noundef %74, double noundef %77, i32 noundef %82) #12
  %84 = load ptr, ptr @stderr, align 8, !tbaa !28
  %85 = load ptr, ptr %2, align 8, !tbaa !3
  %86 = getelementptr inbounds nuw %struct.spring_electrical_control_struct, ptr %85, i32 0, i32 11
  %87 = load i32, ptr %86, align 4, !tbaa !22
  %88 = sext i32 %87 to i64
  %89 = getelementptr inbounds [4 x ptr], ptr @tschemes, i64 0, i64 %88
  %90 = load ptr, ptr %89, align 8, !tbaa !30
  %91 = call i32 (ptr, ptr, ...) @fprintf(ptr noundef %84, ptr noundef @.str.10, ptr noundef %90) #12
  %92 = load ptr, ptr @stderr, align 8, !tbaa !28
  %93 = load ptr, ptr %2, align 8, !tbaa !3
  %94 = getelementptr inbounds nuw %struct.spring_electrical_control_struct, ptr %93, i32 0, i32 14
  %95 = load i32, ptr %94, align 8, !tbaa !25
  %96 = call i32 (ptr, ptr, ...) @fprintf(ptr noundef %92, ptr noundef @.str.11, i32 noundef %95) #12
  ret void
}