; Function Attrs: cold nofree nounwind uwtable
define void @spring_electrical_control_print(ptr noundef readonly captures(none) %0) local_unnamed_addr #4 {
  %2 = load ptr, ptr @stderr, align 8, !tbaa !3
  %3 = tail call i64 @fwrite(ptr nonnull @.str, i64 27, i64 1, ptr %2) #26
  %4 = load ptr, ptr @stderr, align 8, !tbaa !3
  %5 = load double, ptr %0, align 8, !tbaa !8
  %6 = tail call i32 (ptr, ptr, ...) @fprintf(ptr noundef %4, ptr noundef nonnull @.str.1, double noundef %5) #23
  %7 = load ptr, ptr @stderr, align 8, !tbaa !3
  %8 = getelementptr inbounds nuw i8, ptr %0, i64 44
  %9 = load i8, ptr %8, align 4
  %10 = and i8 %9, 1
  %11 = zext nneg i8 %10 to i32
  %12 = getelementptr inbounds nuw i8, ptr %0, i64 40
  %13 = load i32, ptr %12, align 8, !tbaa !17
  %14 = tail call i32 (ptr, ptr, ...) @fprintf(ptr noundef %7, ptr noundef nonnull @.str.2, i32 noundef %11, i32 noundef %13) #23
  %15 = load ptr, ptr @stderr, align 8, !tbaa !3
  %16 = getelementptr inbounds nuw i8, ptr %0, i64 8
  %17 = load double, ptr %16, align 8, !tbaa !13
  %18 = tail call i32 (ptr, ptr, ...) @fprintf(ptr noundef %15, ptr noundef nonnull @.str.3, double noundef %17, double noundef 2.000000e-01) #23
  %19 = load ptr, ptr @stderr, align 8, !tbaa !3
  %20 = getelementptr inbounds nuw i8, ptr %0, i64 16
  %21 = load i32, ptr %20, align 8, !tbaa !21
  %22 = tail call i32 (ptr, ptr, ...) @fprintf(ptr noundef %19, ptr noundef nonnull @.str.4, i32 noundef %21) #23
  %23 = load ptr, ptr @stderr, align 8, !tbaa !3
  %24 = getelementptr inbounds nuw i8, ptr %0, i64 20
  %25 = load i32, ptr %24, align 4, !tbaa !14
  %26 = tail call i32 (ptr, ptr, ...) @fprintf(ptr noundef %23, ptr noundef nonnull @.str.5, i32 noundef 45, i32 noundef %25) #23
  %27 = load ptr, ptr @stderr, align 8, !tbaa !3
  %28 = getelementptr inbounds nuw i8, ptr %0, i64 24
  %29 = load i32, ptr %28, align 8, !tbaa !15
  %30 = tail call i32 (ptr, ptr, ...) @fprintf(ptr noundef %27, ptr noundef nonnull @.str.6, double noundef 6.000000e-01, double noundef 1.000000e-03, i32 noundef %29) #23
  %31 = load ptr, ptr @stderr, align 8, !tbaa !3
  %32 = getelementptr inbounds nuw i8, ptr %0, i64 32
  %33 = load double, ptr %32, align 8, !tbaa !16
  %34 = load i8, ptr %8, align 4
  %35 = lshr i8 %34, 1
  %.lobit = and i8 %35, 1
  %36 = zext nneg i8 %.lobit to i32
  %37 = tail call i32 (ptr, ptr, ...) @fprintf(ptr noundef %31, ptr noundef nonnull @.str.7, double noundef 9.000000e-01, double noundef %33, i32 noundef %36) #23
  %38 = load ptr, ptr @stderr, align 8, !tbaa !3
  %39 = load i8, ptr %8, align 4
  %40 = lshr i8 %39, 2
  %.lobit17 = and i8 %40, 1
  %41 = zext nneg i8 %.lobit17 to i32
  %42 = getelementptr inbounds nuw i8, ptr %0, i64 72
  %43 = load double, ptr %42, align 8, !tbaa !22
  %44 = tail call i32 (ptr, ptr, ...) @fprintf(ptr noundef %38, ptr noundef nonnull @.str.8, i32 noundef %41, i32 noundef 0, double noundef %43) #23
  %45 = load ptr, ptr @stderr, align 8, !tbaa !3
  %46 = getelementptr inbounds nuw i8, ptr %0, i64 48
  %47 = load i32, ptr %46, align 8, !tbaa !23
  %48 = sext i32 %47 to i64
  %49 = getelementptr inbounds [7 x ptr], ptr @smoothings, i64 0, i64 %48
  %50 = load ptr, ptr %49, align 8, !tbaa !24
  %51 = getelementptr inbounds nuw i8, ptr %0, i64 52
  %52 = load i32, ptr %51, align 4, !tbaa !26
  %53 = getelementptr inbounds nuw i8, ptr %0, i64 64
  %54 = load double, ptr %53, align 8, !tbaa !20
  %55 = getelementptr inbounds nuw i8, ptr %0, i64 56
  %56 = load i8, ptr %55, align 8, !tbaa !18, !range !27, !noundef !28
  %57 = zext nneg i8 %56 to i32
  %58 = tail call i32 (ptr, ptr, ...) @fprintf(ptr noundef %45, ptr noundef nonnull @.str.9, ptr noundef %50, i32 noundef %52, double noundef %54, i32 noundef %57) #23
  %59 = load ptr, ptr @stderr, align 8, !tbaa !3
  %60 = getelementptr inbounds nuw i8, ptr %0, i64 60
  %61 = load i32, ptr %60, align 4, !tbaa !19
  %62 = sext i32 %61 to i64
  %63 = getelementptr inbounds [4 x ptr], ptr @tschemes, i64 0, i64 %62
  %64 = load ptr, ptr %63, align 8, !tbaa !24
  %65 = tail call i32 (ptr, ptr, ...) @fprintf(ptr noundef %59, ptr noundef nonnull @.str.10, ptr noundef %64) #23
  %66 = load ptr, ptr @stderr, align 8, !tbaa !3
  %67 = getelementptr inbounds nuw i8, ptr %0, i64 80
  %68 = load i32, ptr %67, align 8, !tbaa !29
  %69 = tail call i32 (ptr, ptr, ...) @fprintf(ptr noundef %66, ptr noundef nonnull @.str.11, i32 noundef %68) #23
  ret void
}